target datalayout = "e-m:e-p270:32:32-p271:32:32-p272:64:64-i64:64-i128:128-f80:128-n8:16:32:64-S128"
target triple = "x86_64-pc-linux-gnu"

%struct.ARKodeARKStepMemRec = type { ptr, ptr, i32, i32, i32, i32, i32, i32, ptr, ptr, ptr, ptr, ptr, ptr, i32, i32, i32, i32, ptr, ptr, ptr, ptr, i32, ptr, double, double, double, double, i32, double, double, double, double, double, double, i32, i64, i32, i32, i32, ptr, ptr, ptr, ptr, ptr, ptr, i32, ptr, ptr, ptr, ptr, ptr, ptr, i32, i32, i64, i64, i64, i64, i64, ptr, ptr, i32, i32, i32, double, double, ptr, i32, ptr, ptr }

@.str.79 = private unnamed_addr constant [2 x i8] c"\0A\00", align 1
@__func__.arkStep_WriteParameters = private unnamed_addr constant [24 x i8] c"arkStep_WriteParameters\00", align 1
@.str.81 = private unnamed_addr constant [38 x i8] c"ARKStep time step module parameters:\0A\00", align 1
@.str.82 = private unnamed_addr constant [19 x i8] c"  Method order %i\0A\00", align 1
@.str.83 = private unnamed_addr constant [26 x i8] c"  Linear implicit problem\00", align 1
@.str.84 = private unnamed_addr constant [28 x i8] c" (time-dependent Jacobian)\0A\00", align 1
@.str.85 = private unnamed_addr constant [30 x i8] c" (time-independent Jacobian)\0A\00", align 1
@.str.86 = private unnamed_addr constant [19 x i8] c"  ImEx integrator\0A\00", align 1
@.str.87 = private unnamed_addr constant [23 x i8] c"  Implicit integrator\0A\00", align 1
@.str.88 = private unnamed_addr constant [23 x i8] c"  Explicit integrator\0A\00", align 1
@.str.89 = private unnamed_addr constant [34 x i8] c"  Implicit predictor method = %i\0A\00", align 1
@.str.90 = private unnamed_addr constant [49 x i8] c"  Implicit solver tolerance coefficient = %.16g\0A\00", align 1
@.str.91 = private unnamed_addr constant [48 x i8] c"  Maximum number of nonlinear corrections = %i\0A\00", align 1
@.str.92 = private unnamed_addr constant [47 x i8] c"  Nonlinear convergence rate constant = %.16g\0A\00", align 1
@.str.93 = private unnamed_addr constant [42 x i8] c"  Nonlinear divergence tolerance = %.16g\0A\00", align 1
@.str.94 = private unnamed_addr constant [41 x i8] c"  Gamma factor LSetup tolerance = %.16g\0A\00", align 1
@.str.95 = private unnamed_addr constant [45 x i8] c"  Number of steps between LSetup calls = %i\0A\00", align 1

; Function Attrs: nounwind uwtable
define i32 @arkStep_WriteParameters(ptr noundef %0, ptr noundef %1) #0 {
  %3 = alloca i32, align 4
  %4 = alloca ptr, align 8
  %5 = alloca ptr, align 8
  %6 = alloca ptr, align 8
  %7 = alloca i32, align 4
  %8 = alloca i32, align 4
  store ptr %0, ptr %4, align 8, !tbaa !20
  store ptr %1, ptr %5, align 8, !tbaa !99
  call void @llvm.lifetime.start.p0(i64 8, ptr %6) #4
  call void @llvm.lifetime.start.p0(i64 4, ptr %7) #4
  %9 = load ptr, ptr %4, align 8, !tbaa !20
  %10 = call i32 @arkStep_AccessStepMem(ptr noundef %9, ptr noundef @__func__.arkStep_WriteParameters, ptr noundef %6)
  store i32 %10, ptr %7, align 4, !tbaa !7
  %11 = load i32, ptr %7, align 4, !tbaa !7
  %12 = icmp ne i32 %11, 0
  br i1 %12, label %13, label %15

13:                                               ; preds = %2
  %14 = load i32, ptr %7, align 4, !tbaa !7
  store i32 %14, ptr %3, align 4
  store i32 1, ptr %8, align 4
  br label %110

15:                                               ; preds = %2
  %16 = load ptr, ptr %5, align 8, !tbaa !99
  %17 = call i32 (ptr, ptr, ...) @fprintf(ptr noundef %16, ptr noundef @.str.81) #4
  %18 = load ptr, ptr %5, align 8, !tbaa !99
  %19 = load ptr, ptr %6, align 8, !tbaa !9
  %20 = getelementptr inbounds nuw %struct.ARKodeARKStepMemRec, ptr %19, i32 0, i32 14
  %21 = load i32, ptr %20, align 8, !tbaa !41
  %22 = call i32 (ptr, ptr, ...) @fprintf(ptr noundef %18, ptr noundef @.str.82, i32 noundef %21) #4
  %23 = load ptr, ptr %6, align 8, !tbaa !9
  %24 = getelementptr inbounds nuw %struct.ARKodeARKStepMemRec, ptr %23, i32 0, i32 3
  %25 = load i32, ptr %24, align 4, !tbaa !69
  %26 = icmp ne i32 %25, 0
  br i1 %26, label %27, label %41

27:                                               ; preds = %15
  %28 = load ptr, ptr %5, align 8, !tbaa !99
  %29 = call i32 (ptr, ptr, ...) @fprintf(ptr noundef %28, ptr noundef @.str.83) #4
  %30 = load ptr, ptr %6, align 8, !tbaa !9
  %31 = getelementptr inbounds nuw %struct.ARKodeARKStepMemRec, ptr %30, i32 0, i32 4
  %32 = load i32, ptr %31, align 8, !tbaa !70
  %33 = icmp ne i32 %32, 0
  br i1 %33, label %34, label %37

34:                                               ; preds = %27
  %35 = load ptr, ptr %5, align 8, !tbaa !99
  %36 = call i32 (ptr, ptr, ...) @fprintf(ptr noundef %35, ptr noundef @.str.84) #4
  br label %40

37:                                               ; preds = %27
  %38 = load ptr, ptr %5, align 8, !tbaa !99
  %39 = call i32 (ptr, ptr, ...) @fprintf(ptr noundef %38, ptr noundef @.str.85) #4
  br label %40

40:                                               ; preds = %37, %34
  br label %41

41:                                               ; preds = %40, %15
  %42 = load ptr, ptr %6, align 8, !tbaa !9
  %43 = getelementptr inbounds nuw %struct.ARKodeARKStepMemRec, ptr %42, i32 0, i32 5
  %44 = load i32, ptr %43, align 4, !tbaa !22
  %45 = icmp ne i32 %44, 0
  br i1 %45, label %46, label %54

46:                                               ; preds = %41
  %47 = load ptr, ptr %6, align 8, !tbaa !9
  %48 = getelementptr inbounds nuw %struct.ARKodeARKStepMemRec, ptr %47, i32 0, i32 6
  %49 = load i32, ptr %48, align 8, !tbaa !23
  %50 = icmp ne i32 %49, 0
  br i1 %50, label %51, label %54

51:                                               ; preds = %46
  %52 = load ptr, ptr %5, align 8, !tbaa !99
  %53 = call i32 (ptr, ptr, ...) @fprintf(ptr noundef %52, ptr noundef @.str.86) #4
  br label %66

54:                                               ; preds = %46, %41
  %55 = load ptr, ptr %6, align 8, !tbaa !9
  %56 = getelementptr inbounds nuw %struct.ARKodeARKStepMemRec, ptr %55, i32 0, i32 6
  %57 = load i32, ptr %56, align 8, !tbaa !23
  %58 = icmp ne i32 %57, 0
  br i1 %58, label %59, label %62

59:                                               ; preds = %54
  %60 = load ptr, ptr %5, align 8, !tbaa !99
  %61 = call i32 (ptr, ptr, ...) @fprintf(ptr noundef %60, ptr noundef @.str.87) #4
  br label %65

62:                                               ; preds = %54
  %63 = load ptr, ptr %5, align 8, !tbaa !99
  %64 = call i32 (ptr, ptr, ...) @fprintf(ptr noundef %63, ptr noundef @.str.88) #4
  br label %65

65:                                               ; preds = %62, %59
  br label %66

66:                                               ; preds = %65, %51
  %67 = load ptr, ptr %6, align 8, !tbaa !9
  %68 = getelementptr inbounds nuw %struct.ARKodeARKStepMemRec, ptr %67, i32 0, i32 6
  %69 = load i32, ptr %68, align 8, !tbaa !23
  %70 = icmp ne i32 %69, 0
  br i1 %70, label %71, label %107

71:                                               ; preds = %66
  %72 = load ptr, ptr %5, align 8, !tbaa !99
  %73 = load ptr, ptr %6, align 8, !tbaa !9
  %74 = getelementptr inbounds nuw %struct.ARKodeARKStepMemRec, ptr %73, i32 0, i32 28
  %75 = load i32, ptr %74, align 8, !tbaa !68
  %76 = call i32 (ptr, ptr, ...) @fprintf(ptr noundef %72, ptr noundef @.str.89, i32 noundef %75) #4
  %77 = load ptr, ptr %5, align 8, !tbaa !99
  %78 = load ptr, ptr %6, align 8, !tbaa !9
  %79 = getelementptr inbounds nuw %struct.ARKodeARKStepMemRec, ptr %78, i32 0, i32 34
  %80 = load double, ptr %79, align 8, !tbaa !74
  %81 = call i32 (ptr, ptr, ...) @fprintf(ptr noundef %77, ptr noundef @.str.90, double noundef %80) #4
  %82 = load ptr, ptr %5, align 8, !tbaa !99
  %83 = load ptr, ptr %6, align 8, !tbaa !9
  %84 = getelementptr inbounds nuw %struct.ARKodeARKStepMemRec, ptr %83, i32 0, i32 37
  %85 = load i32, ptr %84, align 8, !tbaa !73
  %86 = call i32 (ptr, ptr, ...) @fprintf(ptr noundef %82, ptr noundef @.str.91, i32 noundef %85) #4
  %87 = load ptr, ptr %5, align 8, !tbaa !99
  %88 = load ptr, ptr %6, align 8, !tbaa !9
  %89 = getelementptr inbounds nuw %struct.ARKodeARKStepMemRec, ptr %88, i32 0, i32 29
  %90 = load double, ptr %89, align 8, !tbaa !75
  %91 = call i32 (ptr, ptr, ...) @fprintf(ptr noundef %87, ptr noundef @.str.92, double noundef %90) #4
  %92 = load ptr, ptr %5, align 8, !tbaa !99
  %93 = load ptr, ptr %6, align 8, !tbaa !9
  %94 = getelementptr inbounds nuw %struct.ARKodeARKStepMemRec, ptr %93, i32 0, i32 30
  %95 = load double, ptr %94, align 8, !tbaa !76
  %96 = call i32 (ptr, ptr, ...) @fprintf(ptr noundef %92, ptr noundef @.str.93, double noundef %95) #4
  %97 = load ptr, ptr %5, align 8, !tbaa !99
  %98 = load ptr, ptr %6, align 8, !tbaa !9
  %99 = getelementptr inbounds nuw %struct.ARKodeARKStepMemRec, ptr %98, i32 0, i32 27
  %100 = load double, ptr %99, align 8, !tbaa !77
  %101 = call i32 (ptr, ptr, ...) @fprintf(ptr noundef %97, ptr noundef @.str.94, double noundef %100) #4
  %102 = load ptr, ptr %5, align 8, !tbaa !99
  %103 = load ptr, ptr %6, align 8, !tbaa !9
  %104 = getelementptr inbounds nuw %struct.ARKodeARKStepMemRec, ptr %103, i32 0, i32 35
  %105 = load i32, ptr %104, align 8, !tbaa !78
  %106 = call i32 (ptr, ptr, ...) @fprintf(ptr noundef %102, ptr noundef @.str.95, i32 noundef %105) #4
  br label %107

107:                                              ; preds = %71, %66
  %108 = load ptr, ptr %5, align 8, !tbaa !99
  %109 = call i32 (ptr, ptr, ...) @fprintf(ptr noundef %108, ptr noundef @.str.79) #4
  store i32 0, ptr %3, align 4
  store i32 1, ptr %8, align 4
  br label %110

110:                                              ; preds = %107, %13
  call void @llvm.lifetime.end.p0(i64 4, ptr %7) #4
  call void @llvm.lifetime.end.p0(i64 8, ptr %6) #4
  %111 = load i32, ptr %3, align 4
  ret i32 %111
}