; Function Attrs: nounwind uwtable
define i32 @arkStep_WriteParameters(ptr noundef %0, ptr noundef captures(none) %1) local_unnamed_addr #0 {
  %3 = alloca ptr, align 8
  call void @llvm.lifetime.start.p0(i64 8, ptr nonnull %3) #5
  %4 = call i32 @arkStep_AccessStepMem(ptr noundef %0, ptr noundef nonnull @__func__.arkStep_WriteParameters, ptr noundef nonnull %3) #5
  %.not = icmp eq i32 %4, 0
  br i1 %.not, label %5, label %68

5:                                                ; preds = %2
  %6 = call i64 @fwrite(ptr nonnull @.str.81, i64 37, i64 1, ptr %1)
  %7 = load ptr, ptr %3, align 8, !tbaa !3
  %8 = getelementptr inbounds nuw i8, ptr %7, i64 88
  %9 = load i32, ptr %8, align 8, !tbaa !38
  %10 = call i32 (ptr, ptr, ...) @fprintf(ptr noundef %1, ptr noundef nonnull @.str.82, i32 noundef %9) #5
  %11 = load ptr, ptr %3, align 8, !tbaa !3
  %12 = getelementptr inbounds nuw i8, ptr %11, i64 20
  %13 = load i32, ptr %12, align 4, !tbaa !61
  %.not20 = icmp eq i32 %13, 0
  br i1 %.not20, label %23, label %14

14:                                               ; preds = %5
  %15 = call i64 @fwrite(ptr nonnull @.str.83, i64 25, i64 1, ptr %1)
  %16 = load ptr, ptr %3, align 8, !tbaa !3
  %17 = getelementptr inbounds nuw i8, ptr %16, i64 24
  %18 = load i32, ptr %17, align 8, !tbaa !62
  %.not21 = icmp eq i32 %18, 0
  br i1 %.not21, label %21, label %19

19:                                               ; preds = %14
  %20 = call i64 @fwrite(ptr nonnull @.str.84, i64 27, i64 1, ptr %1)
  br label %23

21:                                               ; preds = %14
  %22 = call i64 @fwrite(ptr nonnull @.str.85, i64 29, i64 1, ptr %1)
  br label %23

23:                                               ; preds = %19, %21, %5
  %24 = load ptr, ptr %3, align 8, !tbaa !3
  %25 = getelementptr inbounds nuw i8, ptr %24, i64 28
  %26 = load i32, ptr %25, align 4, !tbaa !20
  %.not22 = icmp eq i32 %26, 0
  %.phi.trans.insert = getelementptr inbounds nuw i8, ptr %24, i64 32
  %.pre = load i32, ptr %.phi.trans.insert, align 8, !tbaa !21
  %27 = icmp eq i32 %.pre, 0
  br i1 %.not22, label %31, label %28

28:                                               ; preds = %23
  br i1 %27, label %.thread, label %29

29:                                               ; preds = %28
  %30 = call i64 @fwrite(ptr nonnull @.str.86, i64 18, i64 1, ptr %1)
  br label %35

31:                                               ; preds = %23
  br i1 %27, label %.thread, label %32

32:                                               ; preds = %31
  %33 = call i64 @fwrite(ptr nonnull @.str.87, i64 22, i64 1, ptr %1)
  br label %35

.thread:                                          ; preds = %28, %31
  %34 = call i64 @fwrite(ptr nonnull @.str.88, i64 22, i64 1, ptr %1)
  br label %35

35:                                               ; preds = %32, %.thread, %29
  %36 = load ptr, ptr %3, align 8, !tbaa !3
  %37 = getelementptr inbounds nuw i8, ptr %36, i64 32
  %38 = load i32, ptr %37, align 8, !tbaa !21
  %.not25 = icmp eq i32 %38, 0
  br i1 %.not25, label %67, label %39

39:                                               ; preds = %35
  %40 = getelementptr inbounds nuw i8, ptr %36, i64 184
  %41 = load i32, ptr %40, align 8, !tbaa !60
  %42 = call i32 (ptr, ptr, ...) @fprintf(ptr noundef %1, ptr noundef nonnull @.str.89, i32 noundef %41) #5
  %43 = load ptr, ptr %3, align 8, !tbaa !3
  %44 = getelementptr inbounds nuw i8, ptr %43, i64 232
  %45 = load double, ptr %44, align 8, !tbaa !66
  %46 = call i32 (ptr, ptr, ...) @fprintf(ptr noundef %1, ptr noundef nonnull @.str.90, double noundef %45) #5
  %47 = load ptr, ptr %3, align 8, !tbaa !3
  %48 = getelementptr inbounds nuw i8, ptr %47, i64 256
  %49 = load i32, ptr %48, align 8, !tbaa !65
  %50 = call i32 (ptr, ptr, ...) @fprintf(ptr noundef %1, ptr noundef nonnull @.str.91, i32 noundef %49) #5
  %51 = load ptr, ptr %3, align 8, !tbaa !3
  %52 = getelementptr inbounds nuw i8, ptr %51, i64 192
  %53 = load double, ptr %52, align 8, !tbaa !67
  %54 = call i32 (ptr, ptr, ...) @fprintf(ptr noundef %1, ptr noundef nonnull @.str.92, double noundef %53) #5
  %55 = load ptr, ptr %3, align 8, !tbaa !3
  %56 = getelementptr inbounds nuw i8, ptr %55, i64 200
  %57 = load double, ptr %56, align 8, !tbaa !68
  %58 = call i32 (ptr, ptr, ...) @fprintf(ptr noundef %1, ptr noundef nonnull @.str.93, double noundef %57) #5
  %59 = load ptr, ptr %3, align 8, !tbaa !3
  %60 = getelementptr inbounds nuw i8, ptr %59, i64 176
  %61 = load double, ptr %60, align 8, !tbaa !69
  %62 = call i32 (ptr, ptr, ...) @fprintf(ptr noundef %1, ptr noundef nonnull @.str.94, double noundef %61) #5
  %63 = load ptr, ptr %3, align 8, !tbaa !3
  %64 = getelementptr inbounds nuw i8, ptr %63, i64 240
  %65 = load i32, ptr %64, align 8, !tbaa !70
  %66 = call i32 (ptr, ptr, ...) @fprintf(ptr noundef %1, ptr noundef nonnull @.str.95, i32 noundef %65) #5
  br label %67

67:                                               ; preds = %39, %35
  %fputc = call i32 @fputc(i32 10, ptr %1)
  br label %68

68:                                               ; preds = %2, %67
  call void @llvm.lifetime.end.p0(i64 8, ptr nonnull %3) #5
  ret i32 %4
}